target datalayout = "e-m:e-p270:32:32-p271:32:32-p272:64:64-i64:64-i128:128-f80:128-n8:16:32:64-S128"
target triple = "x86_64-pc-linux-gnu"

%struct.H5F_t = type { ptr, ptr, ptr, ptr, i32, ptr, i8, i8, ptr, i32 }
%struct.H5F_shared_t = type { ptr, ptr, ptr, i8, i32, i32, %struct.H5F_mtab_t, ptr, i8, i8, i64, i32, i32, i64, i64, ptr, ptr, %struct.H5AC_cache_config_t, %struct.H5AC_cache_image_config_t, i8, i8, ptr, i64, i32, i8, i64, i64, double, i64, i64, i64, i32, i32, i32, i8, i32, ptr, ptr, ptr, ptr, i8, i8, i8, i64, ptr, ptr, i32, i64, i8, i32, i8, i64, i8, [13 x i32], [13 x i64], [13 x ptr], i8, i64, i64, [7 x i32], [7 x i32], %struct.H5F_blk_aggr_t, %struct.H5F_blk_aggr_t, i64, i64, %struct.H5F_meta_accum_t, i32, i32, [30 x ptr], %struct.H5F_object_flush_t, i8, ptr }
%struct.H5F_mtab_t = type { i32, i32, ptr }
%struct.H5AC_cache_config_t = type { i32, i8, i8, i8, [1025 x i8], i8, i8, i64, double, i64, i64, i64, i32, double, double, i8, i64, i32, double, double, i32, double, double, i8, i64, i32, i8, double, i64, i32 }
%struct.H5AC_cache_image_config_t = type { i32, i8, i8, i32 }
%struct.H5F_blk_aggr_t = type { i64, i64, i64, i64, i64 }
%struct.H5F_meta_accum_t = type { ptr, i64, i64, i64, i64, i64, i8 }
%struct.H5F_object_flush_t = type { ptr, ptr }
%struct.H5F_mount_t = type { ptr, ptr }

@H5F_init_g = external global i8, align 1
@H5_libterm_g = external global i8, align 1

; Function Attrs: nounwind uwtable
define internal void @H5F__mount_count_ids_recurse(ptr noundef %0, ptr noundef %1, ptr noundef %2) #0 {
  %4 = alloca ptr, align 8
  %5 = alloca ptr, align 8
  %6 = alloca ptr, align 8
  %7 = alloca i32, align 4
  store ptr %0, ptr %4, align 8, !tbaa !3
  store ptr %1, ptr %5, align 8, !tbaa !75
  store ptr %2, ptr %6, align 8, !tbaa !75
  call void @llvm.lifetime.start.p0(i64 4, ptr %7) #5
  %8 = load i8, ptr @H5F_init_g, align 1, !tbaa !10, !range !12, !noundef !13
  %9 = trunc i8 %8 to i1
  br i1 %9, label %14, label %10

10:                                               ; preds = %3
  %11 = load i8, ptr @H5_libterm_g, align 1, !tbaa !10, !range !12, !noundef !13
  %12 = trunc i8 %11 to i1
  %13 = xor i1 %12, true
  br label %14

14:                                               ; preds = %10, %3
  %15 = phi i1 [ true, %3 ], [ %13, %10 ]
  %16 = xor i1 %15, true
  %17 = xor i1 %16, true
  %18 = zext i1 %17 to i32
  %19 = sext i32 %18 to i64
  %20 = call i64 @llvm.expect.i64(i64 %19, i64 1)
  %21 = icmp ne i64 %20, 0
  br i1 %21, label %22, label %104

22:                                               ; preds = %14
  %23 = load ptr, ptr %4, align 8, !tbaa !3
  %24 = getelementptr inbounds nuw %struct.H5F_t, ptr %23, i32 0, i32 6
  %25 = load i8, ptr %24, align 8, !tbaa !78, !range !12, !noundef !13
  %26 = trunc i8 %25 to i1
  br i1 %26, label %27, label %31

27:                                               ; preds = %22
  %28 = load ptr, ptr %5, align 8, !tbaa !75
  %29 = load i32, ptr %28, align 4, !tbaa !8
  %30 = add i32 %29, 1
  store i32 %30, ptr %28, align 4, !tbaa !8
  br label %31

31:                                               ; preds = %27, %22
  %32 = load ptr, ptr %4, align 8, !tbaa !3
  %33 = getelementptr inbounds nuw %struct.H5F_t, ptr %32, i32 0, i32 4
  %34 = load i32, ptr %33, align 8, !tbaa !79
  %35 = load ptr, ptr %4, align 8, !tbaa !3
  %36 = getelementptr inbounds nuw %struct.H5F_t, ptr %35, i32 0, i32 9
  %37 = load i32, ptr %36, align 8, !tbaa !47
  %38 = sub i32 %34, %37
  %39 = load ptr, ptr %6, align 8, !tbaa !75
  %40 = load i32, ptr %39, align 4, !tbaa !8
  %41 = add i32 %40, %38
  store i32 %41, ptr %39, align 4, !tbaa !8
  store i32 0, ptr %7, align 4, !tbaa !8
  br label %42

42:                                               ; preds = %100, %31
  %43 = load i32, ptr %7, align 4, !tbaa !8
  %44 = load ptr, ptr %4, align 8, !tbaa !3
  %45 = getelementptr inbounds nuw %struct.H5F_t, ptr %44, i32 0, i32 2
  %46 = load ptr, ptr %45, align 8, !tbaa !14
  %47 = getelementptr inbounds nuw %struct.H5F_shared_t, ptr %46, i32 0, i32 6
  %48 = getelementptr inbounds nuw %struct.H5F_mtab_t, ptr %47, i32 0, i32 0
  %49 = load i32, ptr %48, align 8, !tbaa !20
  %50 = icmp ult i32 %43, %49
  br i1 %50, label %51, label %103

51:                                               ; preds = %42
  %52 = load ptr, ptr %4, align 8, !tbaa !3
  %53 = getelementptr inbounds nuw %struct.H5F_t, ptr %52, i32 0, i32 2
  %54 = load ptr, ptr %53, align 8, !tbaa !14
  %55 = getelementptr inbounds nuw %struct.H5F_shared_t, ptr %54, i32 0, i32 6
  %56 = getelementptr inbounds nuw %struct.H5F_mtab_t, ptr %55, i32 0, i32 2
  %57 = load ptr, ptr %56, align 8, !tbaa !41
  %58 = load i32, ptr %7, align 4, !tbaa !8
  %59 = zext i32 %58 to i64
  %60 = getelementptr inbounds nuw %struct.H5F_mount_t, ptr %57, i64 %59
  %61 = getelementptr inbounds nuw %struct.H5F_mount_t, ptr %60, i32 0, i32 1
  %62 = load ptr, ptr %61, align 8, !tbaa !42
  %63 = getelementptr inbounds nuw %struct.H5F_t, ptr %62, i32 0, i32 8
  %64 = load ptr, ptr %63, align 8, !tbaa !44
  %65 = load ptr, ptr %4, align 8, !tbaa !3
  %66 = icmp eq ptr %64, %65
  br i1 %66, label %67, label %99

67:                                               ; preds = %51
  %68 = load ptr, ptr %4, align 8, !tbaa !3
  %69 = getelementptr inbounds nuw %struct.H5F_t, ptr %68, i32 0, i32 2
  %70 = load ptr, ptr %69, align 8, !tbaa !14
  %71 = getelementptr inbounds nuw %struct.H5F_shared_t, ptr %70, i32 0, i32 6
  %72 = getelementptr inbounds nuw %struct.H5F_mtab_t, ptr %71, i32 0, i32 2
  %73 = load ptr, ptr %72, align 8, !tbaa !41
  %74 = load i32, ptr %7, align 4, !tbaa !8
  %75 = zext i32 %74 to i64
  %76 = getelementptr inbounds nuw %struct.H5F_mount_t, ptr %73, i64 %75
  %77 = getelementptr inbounds nuw %struct.H5F_mount_t, ptr %76, i32 0, i32 0
  %78 = load ptr, ptr %77, align 8, !tbaa !45
  %79 = call i32 @H5G_get_shared_count(ptr noundef %78)
  %80 = icmp sgt i32 %79, 1
  br i1 %80, label %81, label %85

81:                                               ; preds = %67
  %82 = load ptr, ptr %6, align 8, !tbaa !75
  %83 = load i32, ptr %82, align 4, !tbaa !8
  %84 = add i32 %83, 1
  store i32 %84, ptr %82, align 4, !tbaa !8
  br label %85

85:                                               ; preds = %81, %67
  %86 = load ptr, ptr %4, align 8, !tbaa !3
  %87 = getelementptr inbounds nuw %struct.H5F_t, ptr %86, i32 0, i32 2
  %88 = load ptr, ptr %87, align 8, !tbaa !14
  %89 = getelementptr inbounds nuw %struct.H5F_shared_t, ptr %88, i32 0, i32 6
  %90 = getelementptr inbounds nuw %struct.H5F_mtab_t, ptr %89, i32 0, i32 2
  %91 = load ptr, ptr %90, align 8, !tbaa !41
  %92 = load i32, ptr %7, align 4, !tbaa !8
  %93 = zext i32 %92 to i64
  %94 = getelementptr inbounds nuw %struct.H5F_mount_t, ptr %91, i64 %93
  %95 = getelementptr inbounds nuw %struct.H5F_mount_t, ptr %94, i32 0, i32 1
  %96 = load ptr, ptr %95, align 8, !tbaa !42
  %97 = load ptr, ptr %5, align 8, !tbaa !75
  %98 = load ptr, ptr %6, align 8, !tbaa !75
  call void @H5F__mount_count_ids_recurse(ptr noundef %96, ptr noundef %97, ptr noundef %98)
  br label %99

99:                                               ; preds = %85, %51
  br label %100

100:                                              ; preds = %99
  %101 = load i32, ptr %7, align 4, !tbaa !8
  %102 = add i32 %101, 1
  store i32 %102, ptr %7, align 4, !tbaa !8
  br label %42, !llvm.loop !80

103:                                              ; preds = %42
  br label %104

104:                                              ; preds = %103, %14
  call void @llvm.lifetime.end.p0(i64 4, ptr %7) #5
  ret void
}