; Function Attrs: nounwind uwtable
define internal fastcc void @H5F__mount_count_ids_recurse(ptr noundef readonly captures(address) %0, ptr noundef captures(none) %1, ptr noundef captures(none) %2) unnamed_addr #0 {
  %4 = load i8, ptr @H5F_init_g, align 1, !tbaa !3, !range !7, !noundef !8
  %5 = trunc nuw i8 %4 to i1
  %6 = load i8, ptr @H5_libterm_g, align 1, !range !7
  %7 = trunc nuw i8 %6 to i1
  %8 = xor i1 %7, true
  %9 = select i1 %5, i1 true, i1 %8
  br i1 %9, label %10, label %.loopexit, !prof !9

10:                                               ; preds = %3
  %11 = getelementptr inbounds nuw i8, ptr %0, i64 48
  %12 = load i8, ptr %11, align 8, !tbaa !69, !range !7, !noundef !8
  %13 = trunc nuw i8 %12 to i1
  br i1 %13, label %14, label %17

14:                                               ; preds = %10
  %15 = load i32, ptr %1, align 4, !tbaa !70
  %16 = add i32 %15, 1
  store i32 %16, ptr %1, align 4, !tbaa !70
  br label %17

17:                                               ; preds = %14, %10
  %18 = getelementptr inbounds nuw i8, ptr %0, i64 32
  %19 = load i32, ptr %18, align 8, !tbaa !71
  %20 = getelementptr inbounds nuw i8, ptr %0, i64 64
  %21 = load i32, ptr %20, align 8, !tbaa !46
  %22 = sub i32 %19, %21
  %23 = load i32, ptr %2, align 4, !tbaa !70
  %24 = add i32 %22, %23
  store i32 %24, ptr %2, align 4, !tbaa !70
  %25 = getelementptr inbounds nuw i8, ptr %0, i64 16
  %26 = load ptr, ptr %25, align 8, !tbaa !10
  %27 = getelementptr inbounds nuw i8, ptr %26, i64 40
  %28 = load i32, ptr %27, align 8, !tbaa !19
  %.not = icmp eq i32 %28, 0
  br i1 %.not, label %.loopexit, label %.lr.ph

.lr.ph:                                           ; preds = %17, %51
  %29 = phi ptr [ %52, %51 ], [ %26, %17 ]
  %indvars.iv = phi i64 [ %indvars.iv.next, %51 ], [ 0, %17 ]
  %30 = getelementptr inbounds nuw i8, ptr %29, i64 48
  %31 = load ptr, ptr %30, align 8, !tbaa !40
  %32 = getelementptr inbounds nuw %struct.H5F_mount_t, ptr %31, i64 %indvars.iv
  %33 = getelementptr inbounds nuw i8, ptr %32, i64 8
  %34 = load ptr, ptr %33, align 8, !tbaa !41
  %35 = getelementptr inbounds nuw i8, ptr %34, i64 56
  %36 = load ptr, ptr %35, align 8, !tbaa !43
  %37 = icmp eq ptr %36, %0
  br i1 %37, label %38, label %51

38:                                               ; preds = %.lr.ph
  %39 = load ptr, ptr %32, align 8, !tbaa !44
  %40 = tail call i32 @H5G_get_shared_count(ptr noundef %39) #6
  %41 = icmp sgt i32 %40, 1
  br i1 %41, label %42, label %45

42:                                               ; preds = %38
  %43 = load i32, ptr %2, align 4, !tbaa !70
  %44 = add i32 %43, 1
  store i32 %44, ptr %2, align 4, !tbaa !70
  br label %45

45:                                               ; preds = %42, %38
  %46 = load ptr, ptr %25, align 8, !tbaa !10
  %47 = getelementptr inbounds nuw i8, ptr %46, i64 48
  %48 = load ptr, ptr %47, align 8, !tbaa !40
  %49 = getelementptr inbounds nuw %struct.H5F_mount_t, ptr %48, i64 %indvars.iv, i32 1
  %50 = load ptr, ptr %49, align 8, !tbaa !41
  tail call fastcc void @H5F__mount_count_ids_recurse(ptr noundef %50, ptr noundef %1, ptr noundef nonnull %2)
  %.pre = load ptr, ptr %25, align 8, !tbaa !10
  br label %51

51:                                               ; preds = %.lr.ph, %45
  %52 = phi ptr [ %29, %.lr.ph ], [ %.pre, %45 ]
  %indvars.iv.next = add nuw nsw i64 %indvars.iv, 1
  %53 = getelementptr inbounds nuw i8, ptr %52, i64 40
  %54 = load i32, ptr %53, align 8, !tbaa !19
  %55 = zext i32 %54 to i64
  %56 = icmp samesign ult i64 %indvars.iv.next, %55
  br i1 %56, label %.lr.ph, label %.loopexit, !llvm.loop !72

.loopexit:                                        ; preds = %51, %17, %3
  ret void
}